; Function Attrs: mustprogress uwtable
define noundef ptr @lean_mk_no_confusion(ptr noundef %0, ptr noundef %1) local_unnamed_addr #0 personality ptr @__gxx_personality_v0 {
  %3 = alloca ptr, align 8
  %4 = alloca ptr, align 8
  %5 = alloca %"class.std::function", align 8
  store ptr %0, ptr %3, align 8, !tbaa !3
  store ptr %1, ptr %4, align 8, !tbaa !3
  call void @llvm.lifetime.start.p0(i64 32, ptr nonnull %5) #20
  %6 = getelementptr inbounds nuw i8, ptr %5, i64 16
  %7 = getelementptr inbounds nuw i8, ptr %5, i64 24
  store ptr %3, ptr %5, align 8, !tbaa !7
  %.sroa.5.0..sroa_idx = getelementptr inbounds nuw i8, ptr %5, i64 8
  store ptr %4, ptr %.sroa.5.0..sroa_idx, align 8, !tbaa !7
  store ptr @"_ZNSt17_Function_handlerIFN4lean11declarationEvEZ20lean_mk_no_confusionE3$_0E9_M_invokeERKSt9_Any_data", ptr %7, align 8, !tbaa !9
  store ptr @"_ZNSt17_Function_handlerIFN4lean11declarationEvEZ20lean_mk_no_confusionE3$_0E10_M_managerERSt9_Any_dataRKS5_St18_Manager_operation", ptr %6, align 8, !tbaa !12
  %8 = invoke noundef ptr @_ZN4lean23catch_kernel_exceptionsINS_11declarationEEEP11lean_objectRKSt8functionIFT_vEE(ptr noundef nonnull align 8 dereferenceable(32) %5)
          to label %9 unwind label %16

9:                                                ; preds = %2
  %10 = load ptr, ptr %6, align 8, !tbaa !12
  %.not.i = icmp eq ptr %10, null
  br i1 %.not.i, label %_ZNSt14_Function_baseD2Ev.exit, label %11

11:                                               ; preds = %9
  %12 = invoke noundef zeroext i1 %10(ptr noundef nonnull align 8 dereferenceable(32) %5, ptr noundef nonnull align 8 dereferenceable(32) %5, i32 noundef 3)
          to label %_ZNSt14_Function_baseD2Ev.exit unwind label %13

13:                                               ; preds = %11
  %14 = landingpad { ptr, i32 }
          catch ptr null
  %15 = extractvalue { ptr, i32 } %14, 0
  call void @__clang_call_terminate(ptr %15) #21
  unreachable

_ZNSt14_Function_baseD2Ev.exit:                   ; preds = %9, %11
  call void @llvm.lifetime.end.p0(i64 32, ptr nonnull %5) #20
  ret ptr %8

16:                                               ; preds = %2
  %17 = landingpad { ptr, i32 }
          cleanup
  %18 = load ptr, ptr %6, align 8, !tbaa !12
  %.not.i1 = icmp eq ptr %18, null
  br i1 %.not.i1, label %_ZNSt14_Function_baseD2Ev.exit2, label %19

19:                                               ; preds = %16
  %20 = invoke noundef zeroext i1 %18(ptr noundef nonnull align 8 dereferenceable(32) %5, ptr noundef nonnull align 8 dereferenceable(32) %5, i32 noundef 3)
          to label %_ZNSt14_Function_baseD2Ev.exit2 unwind label %21

21:                                               ; preds = %19
  %22 = landingpad { ptr, i32 }
          catch ptr null
  %23 = extractvalue { ptr, i32 } %22, 0
  call void @__clang_call_terminate(ptr %23) #21
  unreachable

_ZNSt14_Function_baseD2Ev.exit2:                  ; preds = %16, %19
  call void @llvm.lifetime.end.p0(i64 32, ptr nonnull %5) #20
  resume { ptr, i32 } %17
}